target datalayout = "e-m:e-p270:32:32-p271:32:32-p272:64:64-i64:64-i128:128-f80:128-n8:16:32:64-S128"
target triple = "x86_64-pc-linux-gnu"

%struct.FormData_pg_class = type { i32, %struct.nameData, i32, i32, i32, i32, i32, i32, i32, i32, float, i32, i32, i8, i8, i8, i8, i16, i16, i8, i8, i8, i8, i8, i8, i8, i8, i32, i32, i32 }
%struct.nameData = type { [64 x i8] }
%struct.HeapTupleData = type { i32, %struct.ItemPointerData, i32, ptr }
%struct.ItemPointerData = type { %struct.BlockIdData, i16 }
%struct.BlockIdData = type { i16, i16 }
%struct.HeapTupleHeaderData = type { %union.anon, %struct.ItemPointerData, i16, i16, i8, [0 x i8] }
%union.anon = type { %struct.HeapTupleFields }
%struct.HeapTupleFields = type { i32, i32, %union.anon.1 }
%union.anon.1 = type { i32 }
%struct.RangeVar = type { i32, ptr, ptr, ptr, i8, i8, ptr, i32 }

@.str.2 = private unnamed_addr constant [10 x i8] c"trigger.c\00", align 1
@.str.11 = private unnamed_addr constant [35 x i8] c"relation \22%s\22 cannot have triggers\00", align 1
@allowSystemTableMods = external global i8, align 1
@.str.12 = private unnamed_addr constant [44 x i8] c"permission denied: \22%s\22 is a system catalog\00", align 1
@__func__.RangeVarCallbackForRenameTrigger = private unnamed_addr constant [33 x i8] c"RangeVarCallbackForRenameTrigger\00", align 1

; Function Attrs: inlinehint nounwind uwtable
define internal ptr @GETSTRUCT(ptr noundef %0) #7 {
  %2 = alloca ptr, align 8
  store ptr %0, ptr %2, align 8
  %3 = load ptr, ptr %2, align 8
  %4 = getelementptr inbounds nuw %struct.HeapTupleData, ptr %3, i32 0, i32 3
  %5 = load ptr, ptr %4, align 8
  %6 = load ptr, ptr %2, align 8
  %7 = getelementptr inbounds nuw %struct.HeapTupleData, ptr %6, i32 0, i32 3
  %8 = load ptr, ptr %7, align 8
  %9 = getelementptr inbounds nuw %struct.HeapTupleHeaderData, ptr %8, i32 0, i32 4
  %10 = load i8, ptr %9, align 2
  %11 = zext i8 %10 to i32
  %12 = sext i32 %11 to i64
  %13 = getelementptr inbounds i8, ptr %5, i64 %12
  ret ptr %13
}

; Function Attrs: inlinehint nounwind uwtable
define internal i64 @ObjectIdGetDatum(i32 noundef %0) #7 {
  %2 = alloca i32, align 4
  store i32 %0, ptr %2, align 4
  %3 = load i32, ptr %2, align 4
  %4 = zext i32 %3 to i64
  ret i64 %4
}

; Function Attrs: nounwind uwtable
define internal void @RangeVarCallbackForRenameTrigger(ptr noundef %0, i32 noundef %1, i32 noundef %2, ptr noundef %3) #0 {
  %5 = alloca ptr, align 8
  %6 = alloca i32, align 4
  %7 = alloca i32, align 4
  %8 = alloca ptr, align 8
  %9 = alloca ptr, align 8
  %10 = alloca ptr, align 8
  %11 = alloca i32, align 4
  store ptr %0, ptr %5, align 8
  store i32 %1, ptr %6, align 4
  store i32 %2, ptr %7, align 4
  store ptr %3, ptr %8, align 8
  call void @llvm.lifetime.start.p0(i64 8, ptr %9) #12
  call void @llvm.lifetime.start.p0(i64 8, ptr %10) #12
  %12 = load i32, ptr %6, align 4
  %13 = call i64 @ObjectIdGetDatum(i32 noundef %12)
  %14 = call ptr @SearchSysCache1(i32 noundef 57, i64 noundef %13)
  store ptr %14, ptr %9, align 8
  %15 = load ptr, ptr %9, align 8
  %16 = icmp ne ptr %15, null
  br i1 %16, label %18, label %17

17:                                               ; preds = %4
  store i32 1, ptr %11, align 4
  br label %98

18:                                               ; preds = %4
  %19 = load ptr, ptr %9, align 8
  %20 = call ptr @GETSTRUCT(ptr noundef %19)
  store ptr %20, ptr %10, align 8
  %21 = load ptr, ptr %10, align 8
  %22 = getelementptr inbounds nuw %struct.FormData_pg_class, ptr %21, i32 0, i32 16
  %23 = load i8, ptr %22, align 1
  %24 = sext i8 %23 to i32
  %25 = icmp ne i32 %24, 114
  br i1 %25, label %26, label %63

26:                                               ; preds = %18
  %27 = load ptr, ptr %10, align 8
  %28 = getelementptr inbounds nuw %struct.FormData_pg_class, ptr %27, i32 0, i32 16
  %29 = load i8, ptr %28, align 1
  %30 = sext i8 %29 to i32
  %31 = icmp ne i32 %30, 118
  br i1 %31, label %32, label %63

32:                                               ; preds = %26
  %33 = load ptr, ptr %10, align 8
  %34 = getelementptr inbounds nuw %struct.FormData_pg_class, ptr %33, i32 0, i32 16
  %35 = load i8, ptr %34, align 1
  %36 = sext i8 %35 to i32
  %37 = icmp ne i32 %36, 102
  br i1 %37, label %38, label %63

38:                                               ; preds = %32
  %39 = load ptr, ptr %10, align 8
  %40 = getelementptr inbounds nuw %struct.FormData_pg_class, ptr %39, i32 0, i32 16
  %41 = load i8, ptr %40, align 1
  %42 = sext i8 %41 to i32
  %43 = icmp ne i32 %42, 112
  br i1 %43, label %44, label %63

44:                                               ; preds = %38
  br label %45

45:                                               ; preds = %44
  br i1 true, label %46, label %48

46:                                               ; preds = %45
  %47 = call zeroext i1 @errstart_cold(i32 noundef 21, ptr noundef null) #13
  br i1 %47, label %50, label %60

48:                                               ; preds = %45
  %49 = call zeroext i1 @errstart(i32 noundef 21, ptr noundef null)
  br i1 %49, label %50, label %60

50:                                               ; preds = %48, %46
  %51 = call i32 @errcode(i32 noundef 151027844)
  %52 = load ptr, ptr %5, align 8
  %53 = getelementptr inbounds nuw %struct.RangeVar, ptr %52, i32 0, i32 3
  %54 = load ptr, ptr %53, align 8
  %55 = call i32 (ptr, ...) @errmsg(ptr noundef @.str.11, ptr noundef %54)
  %56 = load ptr, ptr %10, align 8
  %57 = getelementptr inbounds nuw %struct.FormData_pg_class, ptr %56, i32 0, i32 16
  %58 = load i8, ptr %57, align 1
  %59 = call i32 @errdetail_relkind_not_supported(i8 noundef signext %58)
  call void @errfinish(ptr noundef @.str.2, i32 noundef 1439, ptr noundef @__func__.RangeVarCallbackForRenameTrigger)
  br label %60

60:                                               ; preds = %50, %48, %46
  unreachable

61:                                               ; No predecessors!
  br label %62

62:                                               ; preds = %61
  br label %63

63:                                               ; preds = %62, %38, %32, %26, %18
  %64 = load i32, ptr %6, align 4
  %65 = call i32 @GetUserId()
  %66 = call zeroext i1 @object_ownercheck(i32 noundef 1259, i32 noundef %64, i32 noundef %65)
  br i1 %66, label %74, label %67

67:                                               ; preds = %63
  %68 = load i32, ptr %6, align 4
  %69 = call signext i8 @get_rel_relkind(i32 noundef %68)
  %70 = call i32 @get_relkind_objtype(i8 noundef signext %69)
  %71 = load ptr, ptr %5, align 8
  %72 = getelementptr inbounds nuw %struct.RangeVar, ptr %71, i32 0, i32 3
  %73 = load ptr, ptr %72, align 8
  call void @aclcheck_error(i32 noundef 2, i32 noundef %70, ptr noundef %73)
  br label %74

74:                                               ; preds = %67, %63
  %75 = load i8, ptr @allowSystemTableMods, align 1, !range !4, !noundef !5
  %76 = trunc i8 %75 to i1
  br i1 %76, label %96, label %77

77:                                               ; preds = %74
  %78 = load i32, ptr %6, align 4
  %79 = load ptr, ptr %10, align 8
  %80 = call zeroext i1 @IsSystemClass(i32 noundef %78, ptr noundef %79)
  br i1 %80, label %81, label %96

81:                                               ; preds = %77
  br label %82

82:                                               ; preds = %81
  br i1 true, label %83, label %85

83:                                               ; preds = %82
  %84 = call zeroext i1 @errstart_cold(i32 noundef 21, ptr noundef null) #13
  br i1 %84, label %87, label %93

85:                                               ; preds = %82
  %86 = call zeroext i1 @errstart(i32 noundef 21, ptr noundef null)
  br i1 %86, label %87, label %93

87:                                               ; preds = %85, %83
  %88 = call i32 @errcode(i32 noundef 16797828)
  %89 = load ptr, ptr %5, align 8
  %90 = getelementptr inbounds nuw %struct.RangeVar, ptr %89, i32 0, i32 3
  %91 = load ptr, ptr %90, align 8
  %92 = call i32 (ptr, ...) @errmsg(ptr noundef @.str.12, ptr noundef %91)
  call void @errfinish(ptr noundef @.str.2, i32 noundef 1448, ptr noundef @__func__.RangeVarCallbackForRenameTrigger)
  br label %93

93:                                               ; preds = %87, %85, %83
  unreachable

94:                                               ; No predecessors!
  br label %95

95:                                               ; preds = %94
  br label %96

96:                                               ; preds = %95, %77, %74
  %97 = load ptr, ptr %9, align 8
  call void @ReleaseSysCache(ptr noundef %97)
  store i32 0, ptr %11, align 4
  br label %98

98:                                               ; preds = %96, %17
  call void @llvm.lifetime.end.p0(i64 8, ptr %10) #12
  call void @llvm.lifetime.end.p0(i64 8, ptr %9) #12
  %99 = load i32, ptr %11, align 4
  switch i32 %99, label %101 [
    i32 0, label %100
    i32 1, label %100
  ]

100:                                              ; preds = %98, %98
  ret void

101:                                              ; preds = %98
  unreachable
}