; Function Attrs: nounwind uwtable
define internal void @RangeVarCallbackForRenameTrigger(ptr noundef readonly captures(none) %0, i32 noundef %1, i32 %2, ptr readnone captures(none) %3) #0 {
  %5 = zext i32 %1 to i64
  %6 = tail call ptr @SearchSysCache1(i32 noundef 57, i64 noundef %5) #16
  %.not = icmp eq ptr %6, null
  br i1 %.not, label %45, label %7

7:                                                ; preds = %4
  %8 = getelementptr i8, ptr %6, i64 16
  %.val = load ptr, ptr %8, align 8
  %9 = getelementptr inbounds nuw i8, ptr %.val, i64 22
  %10 = load i8, ptr %9, align 2
  %11 = zext i8 %10 to i64
  %12 = getelementptr inbounds nuw i8, ptr %.val, i64 %11
  %13 = getelementptr inbounds nuw i8, ptr %12, i64 115
  %14 = load i8, ptr %13, align 1
  %15 = add i8 %14, -102
  %16 = tail call i8 @llvm.fshl.i8(i8 %15, i8 %15, i8 7)
  switch i8 %16, label %17 [
    i8 6, label %25
    i8 8, label %25
    i8 0, label %25
    i8 5, label %25
  ]

17:                                               ; preds = %7
  %18 = tail call zeroext i1 @errstart_cold(i32 noundef 21, ptr noundef null) #17
  tail call void @llvm.assume(i1 %18)
  %19 = tail call i32 @errcode(i32 noundef 151027844) #16
  %20 = getelementptr inbounds nuw i8, ptr %0, i64 24
  %21 = load ptr, ptr %20, align 8
  %22 = tail call i32 (ptr, ...) @errmsg(ptr noundef nonnull @.str.11, ptr noundef %21) #16
  %23 = load i8, ptr %13, align 1
  %24 = tail call i32 @errdetail_relkind_not_supported(i8 noundef signext %23) #16
  tail call void @errfinish(ptr noundef nonnull @.str.2, i32 noundef 1439, ptr noundef nonnull @__func__.RangeVarCallbackForRenameTrigger) #16
  unreachable

25:                                               ; preds = %7, %7, %7, %7
  %26 = tail call i32 @GetUserId() #16
  %27 = tail call zeroext i1 @object_ownercheck(i32 noundef 1259, i32 noundef %1, i32 noundef %26) #16
  br i1 %27, label %33, label %28

28:                                               ; preds = %25
  %29 = tail call signext i8 @get_rel_relkind(i32 noundef %1) #16
  %30 = tail call i32 @get_relkind_objtype(i8 noundef signext %29) #16
  %31 = getelementptr inbounds nuw i8, ptr %0, i64 24
  %32 = load ptr, ptr %31, align 8
  tail call void @aclcheck_error(i32 noundef 2, i32 noundef %30, ptr noundef %32) #16
  br label %33

33:                                               ; preds = %28, %25
  %34 = load i8, ptr @allowSystemTableMods, align 1, !range !4, !noundef !5
  %35 = trunc nuw i8 %34 to i1
  br i1 %35, label %44, label %36

36:                                               ; preds = %33
  %37 = tail call zeroext i1 @IsSystemClass(i32 noundef %1, ptr noundef nonnull %12) #16
  br i1 %37, label %38, label %44

38:                                               ; preds = %36
  %39 = tail call zeroext i1 @errstart_cold(i32 noundef 21, ptr noundef null) #17
  tail call void @llvm.assume(i1 %39)
  %40 = tail call i32 @errcode(i32 noundef 16797828) #16
  %41 = getelementptr inbounds nuw i8, ptr %0, i64 24
  %42 = load ptr, ptr %41, align 8
  %43 = tail call i32 (ptr, ...) @errmsg(ptr noundef nonnull @.str.12, ptr noundef %42) #16
  tail call void @errfinish(ptr noundef nonnull @.str.2, i32 noundef 1448, ptr noundef nonnull @__func__.RangeVarCallbackForRenameTrigger) #16
  unreachable

44:                                               ; preds = %36, %33
  tail call void @ReleaseSysCache(ptr noundef nonnull %6) #16
  br label %45

45:                                               ; preds = %4, %44
  ret void
}